target datalayout = "e-m:e-p270:32:32-p271:32:32-p272:64:64-i64:64-i128:128-f80:128-n8:16:32:64-S128"
target triple = "x86_64-pc-linux-gnu"

%struct.evp_pkey_ctx_st = type { i32, ptr, ptr, ptr, ptr, %union.anon, %struct.anon.4, ptr, ptr, ptr, i32, i32, ptr, ptr, ptr, ptr, ptr, i8, ptr }
%union.anon = type { %struct.anon.0 }
%struct.anon.0 = type { ptr, ptr }
%struct.anon.4 = type { ptr, ptr, i64, i8 }

; Function Attrs: nounwind uwtable
define i32 @EVP_PKEY_CTX_get_keygen_info(ptr noundef %0, i32 noundef %1) #0 {
  %3 = alloca i32, align 4
  %4 = alloca ptr, align 8
  %5 = alloca i32, align 4
  store ptr %0, ptr %4, align 8, !tbaa !3
  store i32 %1, ptr %5, align 4, !tbaa !8
  %6 = load i32, ptr %5, align 4, !tbaa !8
  %7 = icmp eq i32 %6, -1
  br i1 %7, label %8, label %12

8:                                                ; preds = %2
  %9 = load ptr, ptr %4, align 8, !tbaa !3
  %10 = getelementptr inbounds nuw %struct.evp_pkey_ctx_st, ptr %9, i32 0, i32 10
  %11 = load i32, ptr %10, align 8, !tbaa !38
  store i32 %11, ptr %3, align 4
  br label %30

12:                                               ; preds = %2
  %13 = load i32, ptr %5, align 4, !tbaa !8
  %14 = icmp slt i32 %13, 0
  br i1 %14, label %21, label %15

15:                                               ; preds = %12
  %16 = load i32, ptr %5, align 4, !tbaa !8
  %17 = load ptr, ptr %4, align 8, !tbaa !3
  %18 = getelementptr inbounds nuw %struct.evp_pkey_ctx_st, ptr %17, i32 0, i32 10
  %19 = load i32, ptr %18, align 8, !tbaa !38
  %20 = icmp sgt i32 %16, %19
  br i1 %20, label %21, label %22

21:                                               ; preds = %15, %12
  store i32 0, ptr %3, align 4
  br label %30

22:                                               ; preds = %15
  %23 = load ptr, ptr %4, align 8, !tbaa !3
  %24 = getelementptr inbounds nuw %struct.evp_pkey_ctx_st, ptr %23, i32 0, i32 9
  %25 = load ptr, ptr %24, align 8, !tbaa !37
  %26 = load i32, ptr %5, align 4, !tbaa !8
  %27 = sext i32 %26 to i64
  %28 = getelementptr inbounds i32, ptr %25, i64 %27
  %29 = load i32, ptr %28, align 4, !tbaa !8
  store i32 %29, ptr %3, align 4
  br label %30

30:                                               ; preds = %22, %21, %8
  %31 = load i32, ptr %3, align 4
  ret i32 %31
}