; Function Attrs: mustprogress nofree norecurse nosync nounwind willreturn memory(read, inaccessiblemem: none) uwtable
define i32 @EVP_PKEY_CTX_get_keygen_info(ptr noundef readonly captures(none) %0, i32 noundef %1) local_unnamed_addr #5 {
  %3 = icmp eq i32 %1, -1
  br i1 %3, label %4, label %7

4:                                                ; preds = %2
  %5 = getelementptr inbounds nuw i8, ptr %0, i64 112
  %6 = load i32, ptr %5, align 8, !tbaa !33
  br label %19

7:                                                ; preds = %2
  %8 = icmp slt i32 %1, 0
  br i1 %8, label %19, label %9

9:                                                ; preds = %7
  %10 = getelementptr inbounds nuw i8, ptr %0, i64 112
  %11 = load i32, ptr %10, align 8, !tbaa !33
  %12 = icmp sgt i32 %1, %11
  br i1 %12, label %19, label %13

13:                                               ; preds = %9
  %14 = getelementptr inbounds nuw i8, ptr %0, i64 104
  %15 = load ptr, ptr %14, align 8, !tbaa !32
  %16 = zext nneg i32 %1 to i64
  %17 = getelementptr inbounds nuw i32, ptr %15, i64 %16
  %18 = load i32, ptr %17, align 4, !tbaa !49
  br label %19

19:                                               ; preds = %7, %9, %13, %4
  %.0 = phi i32 [ %6, %4 ], [ %18, %13 ], [ 0, %9 ], [ 0, %7 ]
  ret i32 %.0
}